; Function Attrs: mustprogress nofree norecurse nosync nounwind willreturn memory(read, inaccessiblemem: none) uwtable
define hidden noundef zeroext i1 @_ZNK7PhiNode40must_wait_for_region_in_irreducible_loopEP8PhaseGVN(ptr nocapture noundef nonnull readonly align 8 dereferenceable(88) %0, ptr nocapture noundef readonly %1) local_unnamed_addr #0 align 2 {
  %3 = getelementptr inbounds i8, ptr %0, i64 8
  %4 = load ptr, ptr %3, align 8
  %5 = load ptr, ptr %4, align 8
  %6 = getelementptr inbounds i8, ptr %5, i64 56
  %7 = load i32, ptr %6, align 8
  %8 = icmp eq i32 %7, 0
  br i1 %8, label %9, label %.loopexit

9:                                                ; preds = %2
  %10 = getelementptr inbounds i8, ptr %1, i64 16
  %11 = load ptr, ptr %10, align 8
  %12 = getelementptr inbounds i8, ptr %11, i64 744
  %13 = load ptr, ptr %12, align 8
  %14 = getelementptr inbounds i8, ptr %0, i64 24
  %15 = load i32, ptr %14, align 8
  %16 = icmp ugt i32 %15, 1
  br i1 %16, label %.lr.ph, label %.loopexit

.lr.ph:                                           ; preds = %9
  %17 = getelementptr inbounds i8, ptr %5, i64 8
  %18 = load ptr, ptr %17, align 8
  %19 = getelementptr inbounds i8, ptr %1, i64 40
  %20 = load ptr, ptr @_ZN4Type3TOPE, align 8
  %wide.trip.count = zext i32 %15 to i64
  br label %21

21:                                               ; preds = %.lr.ph, %38
  %indvars.iv = phi i64 [ 1, %.lr.ph ], [ %indvars.iv.next, %38 ]
  %22 = getelementptr inbounds ptr, ptr %18, i64 %indvars.iv
  %23 = load ptr, ptr %22, align 8
  %24 = icmp eq ptr %23, null
  br i1 %24, label %35, label %25

25:                                               ; preds = %21
  %26 = load ptr, ptr %19, align 8
  %27 = getelementptr inbounds i8, ptr %23, i64 40
  %28 = load i32, ptr %27, align 8
  %29 = getelementptr inbounds i8, ptr %26, i64 16
  %30 = load ptr, ptr %29, align 8
  %31 = zext i32 %28 to i64
  %32 = getelementptr inbounds ptr, ptr %30, i64 %31
  %33 = load ptr, ptr %32, align 8
  %34 = icmp eq ptr %33, %20
  br i1 %34, label %35, label %38

35:                                               ; preds = %25, %21
  %36 = getelementptr inbounds ptr, ptr %4, i64 %indvars.iv
  %37 = load ptr, ptr %36, align 8
  %.not = icmp eq ptr %37, null
  %.not17 = icmp eq ptr %37, %13
  %or.cond = or i1 %.not, %.not17
  br i1 %or.cond, label %38, label %.loopexit

38:                                               ; preds = %25, %35
  %indvars.iv.next = add nuw nsw i64 %indvars.iv, 1
  %exitcond.not = icmp eq i64 %indvars.iv.next, %wide.trip.count
  br i1 %exitcond.not, label %.loopexit, label %21, !llvm.loop !40

.loopexit:                                        ; preds = %35, %38, %9, %2
  %.0 = phi i1 [ false, %2 ], [ false, %9 ], [ true, %35 ], [ false, %38 ]
  ret i1 %.0
}